target datalayout = "e-m:e-p270:32:32-p271:32:32-p272:64:64-i64:64-i128:128-f80:128-n8:16:32:64-S128"
target triple = "x86_64-pc-linux-gnu"

%class.ShenandoahAllocRequest = type <{ i64, i64, i64, i32, [4 x i8] }>

; Function Attrs: mustprogress nounwind uwtable
define linkonce_odr hidden void @_ZN22ShenandoahAllocRequestC2EmmNS_4TypeE(ptr noundef nonnull align 8 dereferenceable(28) %0, i64 noundef %1, i64 noundef %2, i32 noundef %3) unnamed_addr #1 comdat align 2 {
  %5 = alloca ptr, align 8
  %6 = alloca i64, align 8
  %7 = alloca i64, align 8
  %8 = alloca i32, align 4
  store ptr %0, ptr %5, align 8
  store i64 %1, ptr %6, align 8
  store i64 %2, ptr %7, align 8
  store i32 %3, ptr %8, align 4
  %9 = load ptr, ptr %5, align 8
  %10 = getelementptr inbounds %class.ShenandoahAllocRequest, ptr %9, i32 0, i32 0
  %11 = load i64, ptr %6, align 8
  store i64 %11, ptr %10, align 8
  %12 = getelementptr inbounds %class.ShenandoahAllocRequest, ptr %9, i32 0, i32 1
  %13 = load i64, ptr %7, align 8
  store i64 %13, ptr %12, align 8
  %14 = getelementptr inbounds %class.ShenandoahAllocRequest, ptr %9, i32 0, i32 2
  store i64 0, ptr %14, align 8
  %15 = getelementptr inbounds %class.ShenandoahAllocRequest, ptr %9, i32 0, i32 3
  %16 = load i32, ptr %8, align 4
  store i32 %16, ptr %15, align 8
  ret void
}

; Function Attrs: mustprogress nounwind uwtable
define linkonce_odr hidden noundef i64 @_ZN22ShenandoahAllocRequest11actual_sizeEv(ptr noundef nonnull align 8 dereferenceable(28) %0) #1 comdat align 2 {
  %2 = alloca ptr, align 8
  store ptr %0, ptr %2, align 8
  %3 = load ptr, ptr %2, align 8
  %4 = getelementptr inbounds %class.ShenandoahAllocRequest, ptr %3, i32 0, i32 2
  %5 = load i64, ptr %4, align 8
  ret i64 %5
}

; Function Attrs: mustprogress nounwind uwtable
define linkonce_odr hidden void @_ZN22ShenandoahAllocRequest9for_gclabEmm(ptr dead_on_unwind noalias writable sret(%class.ShenandoahAllocRequest) align 8 %0, i64 noundef %1, i64 noundef %2) #1 comdat align 2 {
  %4 = alloca i64, align 8
  %5 = alloca i64, align 8
  store i64 %1, ptr %4, align 8
  store i64 %2, ptr %5, align 8
  %6 = load i64, ptr %4, align 8
  %7 = load i64, ptr %5, align 8
  call void @_ZN22ShenandoahAllocRequestC2EmmNS_4TypeE(ptr noundef nonnull align 8 dereferenceable(28) %0, i64 noundef %6, i64 noundef %7, i32 noundef 3)
  ret void
}

; Function Attrs: mustprogress nounwind uwtable
define hidden noundef ptr @_ZN14ShenandoahHeap18allocate_new_gclabEmmPm(ptr noundef nonnull align 8 dereferenceable(2657) %0, i64 noundef %1, i64 noundef %2, ptr noundef %3) #1 align 2 {
  %5 = alloca ptr, align 8
  %6 = alloca i64, align 8
  %7 = alloca i64, align 8
  %8 = alloca ptr, align 8
  %9 = alloca %class.ShenandoahAllocRequest, align 8
  %10 = alloca ptr, align 8
  store ptr %0, ptr %5, align 8
  store i64 %1, ptr %6, align 8
  store i64 %2, ptr %7, align 8
  store ptr %3, ptr %8, align 8
  %11 = load ptr, ptr %5, align 8
  %12 = load i64, ptr %6, align 8
  %13 = load i64, ptr %7, align 8
  call void @_ZN22ShenandoahAllocRequest9for_gclabEmm(ptr dead_on_unwind writable sret(%class.ShenandoahAllocRequest) align 8 %9, i64 noundef %12, i64 noundef %13)
  %14 = call noundef ptr @_ZN14ShenandoahHeap15allocate_memoryER22ShenandoahAllocRequest(ptr noundef nonnull align 8 dereferenceable(2657) %11, ptr noundef nonnull align 8 dereferenceable(28) %9)
  store ptr %14, ptr %10, align 8
  %15 = load ptr, ptr %10, align 8
  %16 = icmp ne ptr %15, null
  br i1 %16, label %17, label %20

17:                                               ; preds = %4
  %18 = call noundef i64 @_ZN22ShenandoahAllocRequest11actual_sizeEv(ptr noundef nonnull align 8 dereferenceable(28) %9)
  %19 = load ptr, ptr %8, align 8
  store i64 %18, ptr %19, align 8
  br label %22

20:                                               ; preds = %4
  %21 = load ptr, ptr %8, align 8
  store i64 0, ptr %21, align 8
  br label %22

22:                                               ; preds = %20, %17
  %23 = load ptr, ptr %10, align 8
  ret ptr %23
}