; Function Attrs: mustprogress nounwind uwtable
define hidden noundef ptr @_ZN14ShenandoahHeap18allocate_new_gclabEmmPm(ptr noundef nonnull align 8 dereferenceable(2657) %0, i64 noundef %1, i64 noundef %2, ptr nocapture noundef writeonly %3) local_unnamed_addr #1 align 2 {
  %5 = alloca %class.ShenandoahAllocRequest, align 8
  store i64 %1, ptr %5, align 8, !alias.scope !24
  %6 = getelementptr inbounds i8, ptr %5, i64 8
  store i64 %2, ptr %6, align 8, !alias.scope !24
  %7 = getelementptr inbounds i8, ptr %5, i64 16
  store i64 0, ptr %7, align 8, !alias.scope !24
  %8 = getelementptr inbounds i8, ptr %5, i64 24
  store i32 3, ptr %8, align 8, !alias.scope !24
  %9 = call noundef ptr @_ZN14ShenandoahHeap15allocate_memoryER22ShenandoahAllocRequest(ptr noundef nonnull align 8 dereferenceable(2657) %0, ptr noundef nonnull align 8 dereferenceable(28) %5)
  %.not = icmp eq ptr %9, null
  %10 = load i64, ptr %7, align 8
  %spec.select = select i1 %.not, i64 0, i64 %10
  store i64 %spec.select, ptr %3, align 8
  ret ptr %9
}